target datalayout = "e-m:e-p270:32:32-p271:32:32-p272:64:64-i64:64-i128:128-f80:128-n8:16:32:64-S128"
target triple = "x86_64-pc-linux-gnu"

%"class.icu_77::MaybeStackArray" = type <{ ptr, i32, i8, [40 x i8], [3 x i8] }>
%"struct.icu_77::LocaleDistanceData" = type { ptr, ptr, ptr, ptr, i32, ptr }
%"struct.icu_77::LSR" = type <{ ptr, ptr, ptr, ptr, i32, i32, i32, [4 x i8] }>
%"class.icu_77::CharStringMap" = type { ptr }
%"class.icu_77::LikelySubtags" = type { ptr, ptr, %"class.icu_77::CharStringMap", %"class.icu_77::CharStringMap", %"class.icu_77::BytesTrie", i64, i64, i32, [26 x i64], ptr, %"struct.icu_77::LocaleDistanceData" }
%"class.icu_77::BytesTrie" = type <{ ptr, ptr, ptr, i32, [4 x i8] }>
%"class.icu_77::CharString" = type { %"class.icu_77::MaybeStackArray", i32, [4 x i8] }

@_ZN6icu_7715MaybeStackArrayIcLi40EED1Ev = weak_odr unnamed_addr alias void (ptr), ptr @_ZN6icu_7715MaybeStackArrayIcLi40EED2Ev
@_ZN6icu_7718LocaleDistanceDataD1Ev = unnamed_addr alias void (ptr), ptr @_ZN6icu_7718LocaleDistanceDataD2Ev

; Function Attrs: mustprogress nounwind uwtable
define linkonce_odr void @_ZN6icu_7713CharStringMapD2Ev(ptr noundef nonnull align 8 dereferenceable(8) %0) unnamed_addr #0 comdat align 2 personality ptr @__gxx_personality_v0 {
  %2 = alloca ptr, align 8
  store ptr %0, ptr %2, align 8, !tbaa !105
  %3 = load ptr, ptr %2, align 8
  %4 = getelementptr inbounds nuw %"class.icu_77::CharStringMap", ptr %3, i32 0, i32 0
  %5 = load ptr, ptr %4, align 8, !tbaa !107
  invoke void @uhash_close_77(ptr noundef %5)
          to label %6 unwind label %7

6:                                                ; preds = %1
  ret void

7:                                                ; preds = %1
  %8 = landingpad { ptr, i32 }
          catch ptr null
  %9 = extractvalue { ptr, i32 } %8, 0
  call void @__clang_call_terminate(ptr %9) #15
  unreachable
}

; Function Attrs: inlinehint mustprogress nounwind uwtable
define linkonce_odr void @_ZN6icu_773LSRD2Ev(ptr noundef nonnull align 8 dereferenceable(48) %0) unnamed_addr #2 comdat align 2 personality ptr @__gxx_personality_v0 {
  %2 = alloca ptr, align 8
  store ptr %0, ptr %2, align 8, !tbaa !35
  %3 = load ptr, ptr %2, align 8
  %4 = getelementptr inbounds nuw %"struct.icu_77::LSR", ptr %3, i32 0, i32 3
  %5 = load ptr, ptr %4, align 8, !tbaa !36
  %6 = icmp ne ptr %5, null
  br i1 %6, label %7, label %9

7:                                                ; preds = %1
  invoke void @_ZN6icu_773LSR11deleteOwnedEv(ptr noundef nonnull align 8 dereferenceable(48) %3)
          to label %8 unwind label %10

8:                                                ; preds = %7
  br label %9

9:                                                ; preds = %8, %1
  ret void

10:                                               ; preds = %7
  %11 = landingpad { ptr, i32 }
          catch ptr null
  %12 = extractvalue { ptr, i32 } %11, 0
  call void @__clang_call_terminate(ptr %12) #15
  unreachable
}

; Function Attrs: mustprogress nounwind uwtable
define linkonce_odr void @_ZN6icu_7710CharStringD2Ev(ptr noundef nonnull align 8 dereferenceable(60) %0) unnamed_addr #0 comdat align 2 {
  %2 = alloca ptr, align 8
  store ptr %0, ptr %2, align 8, !tbaa !104
  %3 = load ptr, ptr %2, align 8
  %4 = getelementptr inbounds nuw %"class.icu_77::CharString", ptr %3, i32 0, i32 0
  call void @_ZN6icu_7715MaybeStackArrayIcLi40EED1Ev(ptr noundef nonnull align 8 dereferenceable(53) %4) #13
  ret void
}

; Function Attrs: mustprogress nounwind uwtable
define void @_ZN6icu_7713LikelySubtagsD2Ev(ptr noundef nonnull align 8 dereferenceable(352) %0) unnamed_addr #0 align 2 personality ptr @__gxx_personality_v0 {
  %2 = alloca ptr, align 8
  store ptr %0, ptr %2, align 8, !tbaa !38
  %3 = load ptr, ptr %2, align 8
  %4 = getelementptr inbounds nuw %"class.icu_77::LikelySubtags", ptr %3, i32 0, i32 0
  %5 = load ptr, ptr %4, align 8, !tbaa !88
  invoke void @ures_close_77(ptr noundef %5)
          to label %6 unwind label %30

6:                                                ; preds = %1
  %7 = getelementptr inbounds nuw %"class.icu_77::LikelySubtags", ptr %3, i32 0, i32 1
  %8 = load ptr, ptr %7, align 8, !tbaa !91
  %9 = icmp eq ptr %8, null
  br i1 %9, label %11, label %10

10:                                               ; preds = %6
  call void @_ZN6icu_7710CharStringD2Ev(ptr noundef nonnull align 8 dereferenceable(60) %8) #13
  call void @_ZN6icu_777UMemorydlEPv(ptr noundef %8) #13
  br label %11

11:                                               ; preds = %10, %6
  %12 = getelementptr inbounds nuw %"class.icu_77::LikelySubtags", ptr %3, i32 0, i32 9
  %13 = load ptr, ptr %12, align 8, !tbaa !92
  %14 = icmp eq ptr %13, null
  br i1 %14, label %25, label %15

15:                                               ; preds = %11
  %16 = getelementptr inbounds i8, ptr %13, i64 -8
  %17 = load i64, ptr %16, align 8
  %18 = getelementptr inbounds %"struct.icu_77::LSR", ptr %13, i64 %17
  %19 = icmp eq ptr %13, %18
  br i1 %19, label %24, label %20

20:                                               ; preds = %20, %15
  %21 = phi ptr [ %18, %15 ], [ %22, %20 ]
  %22 = getelementptr inbounds %"struct.icu_77::LSR", ptr %21, i64 -1
  call void @_ZN6icu_773LSRD2Ev(ptr noundef nonnull align 8 dereferenceable(48) %22) #13
  %23 = icmp eq ptr %22, %13
  br i1 %23, label %24, label %20

24:                                               ; preds = %20, %15
  call void @_ZN6icu_777UMemorydaEPv(ptr noundef %16) #13
  br label %25

25:                                               ; preds = %24, %11
  %26 = getelementptr inbounds nuw %"class.icu_77::LikelySubtags", ptr %3, i32 0, i32 10
  call void @_ZN6icu_7718LocaleDistanceDataD1Ev(ptr noundef nonnull align 8 dereferenceable(48) %26) #13
  %27 = getelementptr inbounds nuw %"class.icu_77::LikelySubtags", ptr %3, i32 0, i32 4
  call void @_ZN6icu_779BytesTrieD1Ev(ptr noundef nonnull align 8 dereferenceable(28) %27) #13
  %28 = getelementptr inbounds nuw %"class.icu_77::LikelySubtags", ptr %3, i32 0, i32 3
  call void @_ZN6icu_7713CharStringMapD2Ev(ptr noundef nonnull align 8 dereferenceable(8) %28) #13
  %29 = getelementptr inbounds nuw %"class.icu_77::LikelySubtags", ptr %3, i32 0, i32 2
  call void @_ZN6icu_7713CharStringMapD2Ev(ptr noundef nonnull align 8 dereferenceable(8) %29) #13
  ret void

30:                                               ; preds = %1
  %31 = landingpad { ptr, i32 }
          catch ptr null
  %32 = extractvalue { ptr, i32 } %31, 0
  call void @__clang_call_terminate(ptr %32) #15
  unreachable
}