; Function Attrs: mustprogress nounwind uwtable
define void @_ZN6icu_7713LikelySubtagsD2Ev(ptr noundef nonnull align 8 dereferenceable(352) %0) unnamed_addr #0 align 2 personality ptr @__gxx_personality_v0 {
  %2 = load ptr, ptr %0, align 8, !tbaa !108
  invoke void @ures_close_77(ptr noundef %2)
          to label %3 unwind label %39

3:                                                ; preds = %1
  %4 = getelementptr inbounds nuw i8, ptr %0, i64 8
  %5 = load ptr, ptr %4, align 8, !tbaa !112
  %6 = icmp eq ptr %5, null
  br i1 %6, label %8, label %7

7:                                                ; preds = %3
  tail call void @_ZN6icu_7715MaybeStackArrayIcLi40EED1Ev(ptr noundef nonnull align 8 dereferenceable(60) %5) #17
  tail call void @_ZN6icu_777UMemorydlEPv(ptr noundef nonnull %5) #17
  br label %8

8:                                                ; preds = %7, %3
  %9 = getelementptr inbounds nuw i8, ptr %0, i64 296
  %10 = load ptr, ptr %9, align 8, !tbaa !117
  %11 = icmp eq ptr %10, null
  br i1 %11, label %26, label %12

12:                                               ; preds = %8
  %13 = getelementptr inbounds i8, ptr %10, i64 -8
  %14 = load i64, ptr %13, align 8
  %15 = icmp eq i64 %14, 0
  br i1 %15, label %.loopexit, label %.preheader.preheader

.preheader.preheader:                             ; preds = %12
  %16 = getelementptr inbounds %"struct.icu_77::LSR", ptr %10, i64 %14
  br label %.preheader

.preheader:                                       ; preds = %.preheader.preheader, %_ZN6icu_773LSRD2Ev.exit
  %17 = phi ptr [ %18, %_ZN6icu_773LSRD2Ev.exit ], [ %16, %.preheader.preheader ]
  %18 = getelementptr inbounds i8, ptr %17, i64 -48
  %19 = getelementptr inbounds i8, ptr %17, i64 -24
  %20 = load ptr, ptr %19, align 8, !tbaa !26
  %.not.i = icmp eq ptr %20, null
  br i1 %.not.i, label %_ZN6icu_773LSRD2Ev.exit, label %21

21:                                               ; preds = %.preheader
  invoke void @_ZN6icu_773LSR11deleteOwnedEv(ptr noundef nonnull align 8 dereferenceable(48) %18)
          to label %_ZN6icu_773LSRD2Ev.exit unwind label %22

22:                                               ; preds = %21
  %23 = landingpad { ptr, i32 }
          catch ptr null
  %24 = extractvalue { ptr, i32 } %23, 0
  tail call void @__clang_call_terminate(ptr %24) #19
  unreachable

_ZN6icu_773LSRD2Ev.exit:                          ; preds = %.preheader, %21
  %25 = icmp eq ptr %18, %10
  br i1 %25, label %.loopexit, label %.preheader

.loopexit:                                        ; preds = %_ZN6icu_773LSRD2Ev.exit, %12
  tail call void @_ZN6icu_777UMemorydaEPv(ptr noundef nonnull %13) #17
  br label %26

26:                                               ; preds = %.loopexit, %8
  %27 = getelementptr inbounds nuw i8, ptr %0, i64 304
  tail call void @_ZN6icu_7718LocaleDistanceDataD1Ev(ptr noundef nonnull align 8 dereferenceable(48) %27) #17
  %28 = getelementptr inbounds nuw i8, ptr %0, i64 32
  tail call void @_ZN6icu_779BytesTrieD1Ev(ptr noundef nonnull align 8 dereferenceable(28) %28) #17
  %29 = getelementptr inbounds nuw i8, ptr %0, i64 24
  %30 = load ptr, ptr %29, align 8, !tbaa !84
  invoke void @uhash_close_77(ptr noundef %30)
          to label %_ZN6icu_7713CharStringMapD2Ev.exit unwind label %31

31:                                               ; preds = %26
  %32 = landingpad { ptr, i32 }
          catch ptr null
  %33 = extractvalue { ptr, i32 } %32, 0
  tail call void @__clang_call_terminate(ptr %33) #19
  unreachable

_ZN6icu_7713CharStringMapD2Ev.exit:               ; preds = %26
  %34 = getelementptr inbounds nuw i8, ptr %0, i64 16
  %35 = load ptr, ptr %34, align 8, !tbaa !84
  invoke void @uhash_close_77(ptr noundef %35)
          to label %_ZN6icu_7713CharStringMapD2Ev.exit3 unwind label %36

36:                                               ; preds = %_ZN6icu_7713CharStringMapD2Ev.exit
  %37 = landingpad { ptr, i32 }
          catch ptr null
  %38 = extractvalue { ptr, i32 } %37, 0
  tail call void @__clang_call_terminate(ptr %38) #19
  unreachable

_ZN6icu_7713CharStringMapD2Ev.exit3:              ; preds = %_ZN6icu_7713CharStringMapD2Ev.exit
  ret void

39:                                               ; preds = %1
  %40 = landingpad { ptr, i32 }
          catch ptr null
  %41 = extractvalue { ptr, i32 } %40, 0
  tail call void @__clang_call_terminate(ptr %41) #19
  unreachable
}